target datalayout = "e-m:e-p270:32:32-p271:32:32-p272:64:64-i64:64-i128:128-f80:128-n8:16:32:64-S128"
target triple = "x86_64-pc-linux-gnu"

%struct.filter_prov_globals_st = type { ptr, ptr, [10 x %struct.anon], i32, i32, i64, i32 }
%struct.anon = type { i32, [6 x %struct.ossl_algorithm_st] }
%struct.ossl_algorithm_st = type { ptr, ptr, ptr, ptr }

@ourglobals = internal global %struct.filter_prov_globals_st zeroinitializer, align 8

; Function Attrs: nounwind uwtable
define internal ptr @get_globals() #0 {
  ret ptr @ourglobals
}

; Function Attrs: nounwind uwtable
define internal void @filter_teardown(ptr noundef %0) #0 {
  %2 = alloca ptr, align 8
  %3 = alloca ptr, align 8
  store ptr %0, ptr %2, align 8, !tbaa !13
  call void @llvm.lifetime.start.p0(i64 8, ptr %3) #7
  %4 = call ptr @get_globals()
  store ptr %4, ptr %3, align 8, !tbaa !31
  %5 = load ptr, ptr %3, align 8, !tbaa !31
  %6 = getelementptr inbounds nuw %struct.filter_prov_globals_st, ptr %5, i32 0, i32 1
  %7 = load ptr, ptr %6, align 8, !tbaa !24
  %8 = call i32 @OSSL_PROVIDER_unload(ptr noundef %7)
  %9 = load ptr, ptr %3, align 8, !tbaa !31
  %10 = getelementptr inbounds nuw %struct.filter_prov_globals_st, ptr %9, i32 0, i32 0
  %11 = load ptr, ptr %10, align 8, !tbaa !19
  call void @OSSL_LIB_CTX_free(ptr noundef %11)
  %12 = load ptr, ptr %3, align 8, !tbaa !31
  call void @llvm.memset.p0.i64(ptr align 8 %12, i8 0, i64 2040, i1 false)
  %13 = load ptr, ptr %2, align 8, !tbaa !13
  %14 = call ptr @ossl_prov_ctx_get0_core_bio_method(ptr noundef %13)
  call void @BIO_meth_free(ptr noundef %14)
  %15 = load ptr, ptr %2, align 8, !tbaa !13
  call void @ossl_prov_ctx_free(ptr noundef %15)
  call void @llvm.lifetime.end.p0(i64 8, ptr %3) #7
  ret void
}