; Function Attrs: nounwind uwtable
define internal void @filter_teardown(ptr noundef %0) #0 {
  %2 = load ptr, ptr getelementptr inbounds nuw (i8, ptr @ourglobals, i64 8), align 8, !tbaa !18
  %3 = tail call i32 @OSSL_PROVIDER_unload(ptr noundef %2) #7
  %4 = load ptr, ptr @ourglobals, align 8, !tbaa !13
  tail call void @OSSL_LIB_CTX_free(ptr noundef %4) #7
  tail call void @llvm.memset.p0.i64(ptr noundef nonnull align 8 dereferenceable(2040) @ourglobals, i8 0, i64 2040, i1 false)
  %5 = tail call ptr @ossl_prov_ctx_get0_core_bio_method(ptr noundef %0) #7
  tail call void @BIO_meth_free(ptr noundef %5) #7
  tail call void @ossl_prov_ctx_free(ptr noundef %0) #7
  ret void
}